; Function Attrs: nounwind uwtable
define ptr @l_Array_set___boxed(ptr noundef readnone captures(none) %0, ptr noundef %1, ptr noundef %2, ptr noundef %3, ptr noundef readnone captures(none) %4) local_unnamed_addr #0 {
  %6 = ptrtoint ptr %2 to i64
  %7 = lshr i64 %6, 1
  %.val.i.i.i = load i32, ptr %1, align 4, !tbaa !4
  %8 = icmp eq i32 %.val.i.i.i, 1
  br i1 %8, label %lean_ensure_exclusive_array.exit.i.i, label %9

9:                                                ; preds = %5
  %10 = tail call ptr @lean_copy_expand_array(ptr noundef nonnull %1, i1 noundef zeroext false) #4
  br label %lean_ensure_exclusive_array.exit.i.i

lean_ensure_exclusive_array.exit.i.i:             ; preds = %9, %5
  %.0.i.i.i = phi ptr [ %10, %9 ], [ %1, %5 ]
  %11 = getelementptr inbounds nuw i8, ptr %.0.i.i.i, i64 24
  %12 = getelementptr inbounds nuw ptr, ptr %11, i64 %7
  %13 = load ptr, ptr %12, align 8, !tbaa !9
  %14 = ptrtoint ptr %13 to i64
  %15 = and i64 %14, 1
  %.not.i.i = icmp eq i64 %15, 0
  br i1 %.not.i.i, label %16, label %lean_array_fset.exit

16:                                               ; preds = %lean_ensure_exclusive_array.exit.i.i
  %17 = load i32, ptr %13, align 4, !tbaa !4
  %18 = icmp sgt i32 %17, 1
  br i1 %18, label %19, label %21, !prof !11

19:                                               ; preds = %16
  %20 = add nsw i32 %17, -1
  store i32 %20, ptr %13, align 4, !tbaa !4
  br label %lean_array_fset.exit

21:                                               ; preds = %16
  %.not.i.i.i = icmp eq i32 %17, 0
  br i1 %.not.i.i.i, label %lean_array_fset.exit, label %22

22:                                               ; preds = %21
  tail call void @lean_dec_ref_cold(ptr noundef nonnull %13) #4
  br label %lean_array_fset.exit

lean_array_fset.exit:                             ; preds = %lean_ensure_exclusive_array.exit.i.i, %19, %21, %22
  store ptr %3, ptr %12, align 8, !tbaa !9
  %23 = and i64 %6, 1
  %.not = icmp eq i64 %23, 0
  br i1 %.not, label %24, label %lean_dec.exit

24:                                               ; preds = %lean_array_fset.exit
  %25 = load i32, ptr %2, align 4, !tbaa !4
  %26 = icmp sgt i32 %25, 1
  br i1 %26, label %27, label %29, !prof !11

27:                                               ; preds = %24
  %28 = add nsw i32 %25, -1
  store i32 %28, ptr %2, align 4, !tbaa !4
  br label %lean_dec.exit

29:                                               ; preds = %24
  %.not.i = icmp eq i32 %25, 0
  br i1 %.not.i, label %lean_dec.exit, label %30

30:                                               ; preds = %29
  tail call void @lean_dec_ref_cold(ptr noundef nonnull %2) #4
  br label %lean_dec.exit

lean_dec.exit:                                    ; preds = %30, %29, %27, %lean_array_fset.exit
  ret ptr %.0.i.i.i
}